target datalayout = "e-m:e-p270:32:32-p271:32:32-p272:64:64-i64:64-i128:128-f80:128-n8:16:32:64-S128"
target triple = "x86_64-pc-linux-gnu"

%struct.rb_iseq_struct = type { i64, i64, ptr, %union.anon.13 }
%union.anon.13 = type { %struct.anon.14 }
%struct.anon.14 = type { i64, i32 }
%struct.rb_iseq_constant_body = type { i32, i32, ptr, %struct.anon.16, %struct.rb_iseq_location_struct, %struct.iseq_insn_info, ptr, ptr, ptr, ptr, ptr, ptr, %struct.anon.17, i32, i32, i32, i32, i32, i32, i32, i32, i8, %union.anon.18, ptr, ptr, ptr, i64, ptr, i64, ptr, i64 }
%struct.anon.16 = type { %struct.anon, i32, i32, i32, i32, i32, i32, i32, ptr, ptr }
%struct.anon = type { i16, [2 x i8] }
%struct.rb_iseq_location_struct = type { i64, i64, i64, i32, i32, %struct.rb_code_location_struct }
%struct.rb_code_location_struct = type { %struct.rb_code_position_struct, %struct.rb_code_position_struct }
%struct.rb_code_position_struct = type { i32, i32 }
%struct.iseq_insn_info = type { ptr, ptr, i32, ptr }
%struct.anon.17 = type { i64, i64, i64, i64, ptr }
%union.anon.18 = type { ptr }

; Function Attrs: nounwind sspstrong uwtable
define hidden zeroext i1 @rb_get_iseq_flags_has_lead(ptr noundef %0) #0 {
  %2 = alloca ptr, align 8
  store ptr %0, ptr %2, align 8, !tbaa !87
  %3 = load ptr, ptr %2, align 8, !tbaa !87
  %4 = getelementptr inbounds nuw %struct.rb_iseq_struct, ptr %3, i32 0, i32 2
  %5 = load ptr, ptr %4, align 8, !tbaa !88
  %6 = getelementptr inbounds nuw %struct.rb_iseq_constant_body, ptr %5, i32 0, i32 3
  %7 = getelementptr inbounds nuw %struct.anon.16, ptr %6, i32 0, i32 0
  %8 = load i16, ptr %7, align 8
  %9 = and i16 %8, 1
  %10 = zext i16 %9 to i32
  %11 = icmp ne i32 %10, 0
  ret i1 %11
}